target datalayout = "e-m:e-p270:32:32-p271:32:32-p272:64:64-i64:64-i128:128-f80:128-n8:16:32:64-S128"
target triple = "x86_64-pc-linux-gnu"

%struct.AVHWDeviceContext = type { ptr, i32, ptr, ptr, ptr }
%struct.AVVAAPIDeviceContext = type { ptr, i32 }
%struct._VAImageFormat = type { i32, i32, i32, i32, i32, i32, i32, i32, [4 x i32] }
%struct._VAImage = type { i32, %struct._VAImageFormat, i32, i16, i16, i32, i32, [3 x i32], [3 x i32], i32, i32, [4 x i8], [4 x i32] }
%struct.AVHWFramesContext = type { ptr, ptr, ptr, ptr, ptr, ptr, ptr, i32, i32, i32, i32, i32 }
%struct.AVFrame = type { [8 x ptr], [8 x i32], ptr, i32, i32, i32, i32, i32, %struct.AVRational, i64, i64, %struct.AVRational, i32, ptr, i32, i32, [8 x ptr], ptr, i32, ptr, i32, i32, i32, i32, i32, i32, i32, i64, ptr, i32, ptr, ptr, i64, i64, i64, i64, ptr, %struct.AVChannelLayout, i64 }
%struct.AVRational = type { i32, i32 }
%struct.AVChannelLayout = type { i32, i32, %union.anon.2, ptr }
%union.anon.2 = type { i64 }
%struct.VAAPIMapping = type { %struct._VAImage, i32 }
%struct.HWMapDescriptor = type { ptr, ptr, ptr, ptr }

@.str.76 = private unnamed_addr constant [20 x i8] c"Unmap surface %#x.\0A\00", align 1
@.str.77 = private unnamed_addr constant [50 x i8] c"Failed to unmap image from surface %#x: %d (%s).\0A\00", align 1
@.str.78 = private unnamed_addr constant [48 x i8] c"Failed to write image to surface %#x: %d (%s).\0A\00", align 1
@.str.79 = private unnamed_addr constant [52 x i8] c"Failed to destroy image from surface %#x: %d (%s).\0A\00", align 1

; Function Attrs: nounwind uwtable
define internal void @vaapi_unmap_frame(ptr noundef %0, ptr noundef %1) #0 {
  %3 = alloca ptr, align 8
  %4 = alloca ptr, align 8
  %5 = alloca ptr, align 8
  %6 = alloca ptr, align 8
  %7 = alloca i32, align 4
  %8 = alloca i32, align 4
  store ptr %0, ptr %3, align 8, !tbaa !97
  store ptr %1, ptr %4, align 8, !tbaa !176
  call void @llvm.lifetime.start.p0(i64 8, ptr %5) #10
  %9 = load ptr, ptr %3, align 8, !tbaa !97
  %10 = getelementptr inbounds nuw %struct.AVHWFramesContext, ptr %9, i32 0, i32 2
  %11 = load ptr, ptr %10, align 8, !tbaa !107
  %12 = getelementptr inbounds nuw %struct.AVHWDeviceContext, ptr %11, i32 0, i32 2
  %13 = load ptr, ptr %12, align 8, !tbaa !43
  store ptr %13, ptr %5, align 8, !tbaa !52
  call void @llvm.lifetime.start.p0(i64 8, ptr %6) #10
  %14 = load ptr, ptr %4, align 8, !tbaa !176
  %15 = getelementptr inbounds nuw %struct.HWMapDescriptor, ptr %14, i32 0, i32 3
  %16 = load ptr, ptr %15, align 8, !tbaa !178
  store ptr %16, ptr %6, align 8, !tbaa !165
  call void @llvm.lifetime.start.p0(i64 4, ptr %7) #10
  call void @llvm.lifetime.start.p0(i64 4, ptr %8) #10
  %17 = load ptr, ptr %4, align 8, !tbaa !176
  %18 = getelementptr inbounds nuw %struct.HWMapDescriptor, ptr %17, i32 0, i32 0
  %19 = load ptr, ptr %18, align 8, !tbaa !180
  %20 = getelementptr inbounds nuw %struct.AVFrame, ptr %19, i32 0, i32 0
  %21 = getelementptr inbounds [8 x ptr], ptr %20, i64 0, i64 3
  %22 = load ptr, ptr %21, align 8, !tbaa !9
  %23 = ptrtoint ptr %22 to i64
  %24 = trunc i64 %23 to i32
  store i32 %24, ptr %7, align 4, !tbaa !13
  %25 = load ptr, ptr %3, align 8, !tbaa !97
  %26 = load i32, ptr %7, align 4, !tbaa !13
  call void (ptr, i32, ptr, ...) @av_log(ptr noundef %25, i32 noundef 48, ptr noundef @.str.76, i32 noundef %26)
  %27 = load ptr, ptr %5, align 8, !tbaa !52
  %28 = getelementptr inbounds nuw %struct.AVVAAPIDeviceContext, ptr %27, i32 0, i32 0
  %29 = load ptr, ptr %28, align 8, !tbaa !56
  %30 = load ptr, ptr %6, align 8, !tbaa !165
  %31 = getelementptr inbounds nuw %struct.VAAPIMapping, ptr %30, i32 0, i32 0
  %32 = getelementptr inbounds nuw %struct._VAImage, ptr %31, i32 0, i32 2
  %33 = load i32, ptr %32, align 4, !tbaa !171
  %34 = call i32 @vaUnmapBuffer(ptr noundef %29, i32 noundef %33)
  store i32 %34, ptr %8, align 4, !tbaa !13
  %35 = load i32, ptr %8, align 4, !tbaa !13
  %36 = icmp ne i32 %35, 0
  br i1 %36, label %37, label %43

37:                                               ; preds = %2
  %38 = load ptr, ptr %3, align 8, !tbaa !97
  %39 = load i32, ptr %7, align 4, !tbaa !13
  %40 = load i32, ptr %8, align 4, !tbaa !13
  %41 = load i32, ptr %8, align 4, !tbaa !13
  %42 = call ptr @vaErrorStr(i32 noundef %41)
  call void (ptr, i32, ptr, ...) @av_log(ptr noundef %38, i32 noundef 16, ptr noundef @.str.77, i32 noundef %39, i32 noundef %40, ptr noundef %42)
  br label %43

43:                                               ; preds = %37, %2
  %44 = load ptr, ptr %6, align 8, !tbaa !165
  %45 = getelementptr inbounds nuw %struct.VAAPIMapping, ptr %44, i32 0, i32 1
  %46 = load i32, ptr %45, align 4, !tbaa !167
  %47 = and i32 %46, 2
  %48 = icmp ne i32 %47, 0
  br i1 %48, label %49, label %86

49:                                               ; preds = %43
  %50 = load ptr, ptr %6, align 8, !tbaa !165
  %51 = getelementptr inbounds nuw %struct.VAAPIMapping, ptr %50, i32 0, i32 1
  %52 = load i32, ptr %51, align 4, !tbaa !167
  %53 = and i32 %52, 8
  %54 = icmp ne i32 %53, 0
  br i1 %54, label %86, label %55

55:                                               ; preds = %49
  %56 = load ptr, ptr %5, align 8, !tbaa !52
  %57 = getelementptr inbounds nuw %struct.AVVAAPIDeviceContext, ptr %56, i32 0, i32 0
  %58 = load ptr, ptr %57, align 8, !tbaa !56
  %59 = load i32, ptr %7, align 4, !tbaa !13
  %60 = load ptr, ptr %6, align 8, !tbaa !165
  %61 = getelementptr inbounds nuw %struct.VAAPIMapping, ptr %60, i32 0, i32 0
  %62 = getelementptr inbounds nuw %struct._VAImage, ptr %61, i32 0, i32 0
  %63 = load i32, ptr %62, align 4, !tbaa !169
  %64 = load ptr, ptr %3, align 8, !tbaa !97
  %65 = getelementptr inbounds nuw %struct.AVHWFramesContext, ptr %64, i32 0, i32 10
  %66 = load i32, ptr %65, align 4, !tbaa !152
  %67 = load ptr, ptr %3, align 8, !tbaa !97
  %68 = getelementptr inbounds nuw %struct.AVHWFramesContext, ptr %67, i32 0, i32 11
  %69 = load i32, ptr %68, align 8, !tbaa !154
  %70 = load ptr, ptr %3, align 8, !tbaa !97
  %71 = getelementptr inbounds nuw %struct.AVHWFramesContext, ptr %70, i32 0, i32 10
  %72 = load i32, ptr %71, align 4, !tbaa !152
  %73 = load ptr, ptr %3, align 8, !tbaa !97
  %74 = getelementptr inbounds nuw %struct.AVHWFramesContext, ptr %73, i32 0, i32 11
  %75 = load i32, ptr %74, align 8, !tbaa !154
  %76 = call i32 @vaPutImage(ptr noundef %58, i32 noundef %59, i32 noundef %63, i32 noundef 0, i32 noundef 0, i32 noundef %66, i32 noundef %69, i32 noundef 0, i32 noundef 0, i32 noundef %72, i32 noundef %75)
  store i32 %76, ptr %8, align 4, !tbaa !13
  %77 = load i32, ptr %8, align 4, !tbaa !13
  %78 = icmp ne i32 %77, 0
  br i1 %78, label %79, label %85

79:                                               ; preds = %55
  %80 = load ptr, ptr %3, align 8, !tbaa !97
  %81 = load i32, ptr %7, align 4, !tbaa !13
  %82 = load i32, ptr %8, align 4, !tbaa !13
  %83 = load i32, ptr %8, align 4, !tbaa !13
  %84 = call ptr @vaErrorStr(i32 noundef %83)
  call void (ptr, i32, ptr, ...) @av_log(ptr noundef %80, i32 noundef 16, ptr noundef @.str.78, i32 noundef %81, i32 noundef %82, ptr noundef %84)
  br label %85

85:                                               ; preds = %79, %55
  br label %86

86:                                               ; preds = %85, %49, %43
  %87 = load ptr, ptr %5, align 8, !tbaa !52
  %88 = getelementptr inbounds nuw %struct.AVVAAPIDeviceContext, ptr %87, i32 0, i32 0
  %89 = load ptr, ptr %88, align 8, !tbaa !56
  %90 = load ptr, ptr %6, align 8, !tbaa !165
  %91 = getelementptr inbounds nuw %struct.VAAPIMapping, ptr %90, i32 0, i32 0
  %92 = getelementptr inbounds nuw %struct._VAImage, ptr %91, i32 0, i32 0
  %93 = load i32, ptr %92, align 4, !tbaa !169
  %94 = call i32 @vaDestroyImage(ptr noundef %89, i32 noundef %93)
  store i32 %94, ptr %8, align 4, !tbaa !13
  %95 = load i32, ptr %8, align 4, !tbaa !13
  %96 = icmp ne i32 %95, 0
  br i1 %96, label %97, label %103

97:                                               ; preds = %86
  %98 = load ptr, ptr %3, align 8, !tbaa !97
  %99 = load i32, ptr %7, align 4, !tbaa !13
  %100 = load i32, ptr %8, align 4, !tbaa !13
  %101 = load i32, ptr %8, align 4, !tbaa !13
  %102 = call ptr @vaErrorStr(i32 noundef %101)
  call void (ptr, i32, ptr, ...) @av_log(ptr noundef %98, i32 noundef 16, ptr noundef @.str.79, i32 noundef %99, i32 noundef %100, ptr noundef %102)
  br label %103

103:                                              ; preds = %97, %86
  %104 = load ptr, ptr %6, align 8, !tbaa !165
  call void @av_free(ptr noundef %104)
  call void @llvm.lifetime.end.p0(i64 4, ptr %8) #10
  call void @llvm.lifetime.end.p0(i64 4, ptr %7) #10
  call void @llvm.lifetime.end.p0(i64 8, ptr %6) #10
  call void @llvm.lifetime.end.p0(i64 8, ptr %5) #10
  ret void
}