; Function Attrs: nounwind uwtable
define internal void @vaapi_unmap_frame(ptr noundef %0, ptr noundef readonly captures(none) %1) #0 {
  %3 = getelementptr inbounds nuw i8, ptr %0, i64 16
  %4 = load ptr, ptr %3, align 8, !tbaa !80
  %5 = getelementptr inbounds nuw i8, ptr %4, i64 16
  %6 = load ptr, ptr %5, align 8, !tbaa !31
  %7 = getelementptr inbounds nuw i8, ptr %1, i64 24
  %8 = load ptr, ptr %7, align 8, !tbaa !215
  %9 = load ptr, ptr %1, align 8, !tbaa !217
  %10 = getelementptr inbounds nuw i8, ptr %9, i64 24
  %11 = load ptr, ptr %10, align 8, !tbaa !112
  %12 = ptrtoint ptr %11 to i64
  %13 = trunc i64 %12 to i32
  tail call void (ptr, i32, ptr, ...) @av_log(ptr noundef %0, i32 noundef 48, ptr noundef nonnull @.str.76, i32 noundef %13) #11
  %14 = load ptr, ptr %6, align 8, !tbaa !34
  %15 = getelementptr inbounds nuw i8, ptr %8, i64 52
  %16 = load i32, ptr %15, align 4, !tbaa !212
  %17 = tail call i32 @vaUnmapBuffer(ptr noundef %14, i32 noundef %16) #11
  %.not = icmp eq i32 %17, 0
  br i1 %.not, label %20, label %18

18:                                               ; preds = %2
  %19 = tail call ptr @vaErrorStr(i32 noundef %17) #11
  tail call void (ptr, i32, ptr, ...) @av_log(ptr noundef nonnull %0, i32 noundef 16, ptr noundef nonnull @.str.77, i32 noundef %13, i32 noundef %17, ptr noundef %19) #11
  br label %20

20:                                               ; preds = %18, %2
  %21 = getelementptr inbounds nuw i8, ptr %8, i64 120
  %22 = load i32, ptr %21, align 4, !tbaa !208
  %23 = and i32 %22, 10
  %or.cond = icmp eq i32 %23, 2
  br i1 %or.cond, label %24, label %34

24:                                               ; preds = %20
  %25 = load ptr, ptr %6, align 8, !tbaa !34
  %26 = load i32, ptr %8, align 4, !tbaa !210
  %27 = getelementptr inbounds nuw i8, ptr %0, i64 68
  %28 = load i32, ptr %27, align 4, !tbaa !122
  %29 = getelementptr inbounds nuw i8, ptr %0, i64 72
  %30 = load i32, ptr %29, align 8, !tbaa !124
  %31 = tail call i32 @vaPutImage(ptr noundef %25, i32 noundef %13, i32 noundef %26, i32 noundef 0, i32 noundef 0, i32 noundef %28, i32 noundef %30, i32 noundef 0, i32 noundef 0, i32 noundef %28, i32 noundef %30) #11
  %.not37 = icmp eq i32 %31, 0
  br i1 %.not37, label %34, label %32

32:                                               ; preds = %24
  %33 = tail call ptr @vaErrorStr(i32 noundef %31) #11
  tail call void (ptr, i32, ptr, ...) @av_log(ptr noundef nonnull %0, i32 noundef 16, ptr noundef nonnull @.str.78, i32 noundef %13, i32 noundef %31, ptr noundef %33) #11
  br label %34

34:                                               ; preds = %24, %32, %20
  %35 = load ptr, ptr %6, align 8, !tbaa !34
  %36 = load i32, ptr %8, align 4, !tbaa !210
  %37 = tail call i32 @vaDestroyImage(ptr noundef %35, i32 noundef %36) #11
  %.not38 = icmp eq i32 %37, 0
  br i1 %.not38, label %40, label %38

38:                                               ; preds = %34
  %39 = tail call ptr @vaErrorStr(i32 noundef %37) #11
  tail call void (ptr, i32, ptr, ...) @av_log(ptr noundef nonnull %0, i32 noundef 16, ptr noundef nonnull @.str.79, i32 noundef %13, i32 noundef %37, ptr noundef %39) #11
  br label %40

40:                                               ; preds = %38, %34
  tail call void @av_free(ptr noundef nonnull %8) #11
  ret void
}